target datalayout = "e-m:e-p270:32:32-p271:32:32-p272:64:64-i64:64-i128:128-f80:128-n8:16:32:64-S128"
target triple = "x86_64-pc-linux-gnu"

%struct.GCcdata = type { %struct.GCRef, i8, i8, i16 }
%struct.GCRef = type { i64 }
%struct.CTState = type { ptr, i32, i32, ptr, ptr, ptr, %struct.CCallback, [128 x i16] }
%struct.CCallback = type { [8 x %union.FPRCBArg], [8 x i64], ptr, ptr, ptr, i32, i32, i32 }
%union.FPRCBArg = type { double }
%struct.GCcdataVar = type { i16, i16, i32 }
%struct.lua_State = type { %struct.GCRef, i8, i8, i8, i8, %struct.MRef, %struct.GCRef, ptr, ptr, %struct.MRef, %struct.MRef, %struct.GCRef, %struct.GCRef, ptr, i32 }
%struct.MRef = type { i64 }
%struct.global_State = type { ptr, ptr, %struct.GCState, %struct.GCstr, i8, i8, i8, i8, %struct.StrInternState, i32, %struct.GCRef, %struct.SBuf, %union.TValue, %union.TValue, %struct.Node, %union.TValue, %struct.GCupval, i32, i32, ptr, ptr, ptr, i32, i32, %struct.GCRef, %struct.MRef, %struct.MRef, %struct.PRNGState, [39 x %struct.GCRef] }
%struct.GCState = type { i64, i64, i8, i8, i8, i8, i32, %struct.GCRef, %struct.MRef, %struct.GCRef, %struct.GCRef, %struct.GCRef, %struct.GCRef, i64, i64, i32, i32, %struct.MRef }
%struct.GCstr = type { %struct.GCRef, i8, i8, i8, i8, i32, i32, i32 }
%struct.StrInternState = type { ptr, i32, i32, i32, i8, i8, i8, i8, i64 }
%struct.SBuf = type { ptr, ptr, ptr, %struct.MRef }
%struct.Node = type { %union.TValue, %union.TValue, %struct.MRef }
%union.TValue = type { i64 }
%struct.GCupval = type { %struct.GCRef, i8, i8, i8, i8, %union.anon, %struct.MRef, i32 }
%union.anon = type { %struct.anon.1 }
%struct.anon.1 = type { %struct.GCRef, %struct.GCRef }
%struct.PRNGState = type { [4 x i64] }
%struct.GChead = type { %struct.GCRef, i8, i8, i8, i8, %struct.GCRef, %struct.GCRef, %struct.GCRef }

; Function Attrs: alwaysinline nounwind uwtable
define internal i32 @ctype_check(ptr noundef %0, i32 noundef %1) #3 {
  %3 = alloca ptr, align 8
  %4 = alloca i32, align 4
  store ptr %0, ptr %3, align 8, !tbaa !4
  store i32 %1, ptr %4, align 4, !tbaa !10
  %5 = load i32, ptr %4, align 4, !tbaa !10
  ret i32 %5
}

; Function Attrs: nounwind uwtable
define hidden ptr @lj_cdata_newv(ptr noundef %0, i32 noundef %1, i32 noundef %2, i32 noundef %3) #0 {
  %5 = alloca ptr, align 8
  %6 = alloca i32, align 4
  %7 = alloca i32, align 4
  %8 = alloca i32, align 4
  %9 = alloca ptr, align 8
  %10 = alloca i32, align 4
  %11 = alloca ptr, align 8
  %12 = alloca i64, align 8
  %13 = alloca i64, align 8
  %14 = alloca ptr, align 8
  store ptr %0, ptr %5, align 8, !tbaa !29
  store i32 %1, ptr %6, align 4, !tbaa !10
  store i32 %2, ptr %7, align 4, !tbaa !10
  store i32 %3, ptr %8, align 4, !tbaa !10
  call void @llvm.lifetime.start.p0(i64 8, ptr %9) #6
  call void @llvm.lifetime.start.p0(i64 4, ptr %10) #6
  %15 = load i32, ptr %8, align 4, !tbaa !10
  %16 = icmp ugt i32 %15, 3
  br i1 %16, label %17, label %21

17:                                               ; preds = %4
  %18 = load i32, ptr %8, align 4, !tbaa !10
  %19 = shl i32 1, %18
  %20 = sub i32 %19, 8
  br label %22

21:                                               ; preds = %4
  br label %22

22:                                               ; preds = %21, %17
  %23 = phi i32 [ %20, %17 ], [ 0, %21 ]
  %24 = zext i32 %23 to i64
  %25 = add i64 24, %24
  %26 = trunc i64 %25 to i32
  store i32 %26, ptr %10, align 4, !tbaa !10
  call void @llvm.lifetime.start.p0(i64 8, ptr %11) #6
  %27 = load ptr, ptr %5, align 8, !tbaa !29
  %28 = load i32, ptr %10, align 4, !tbaa !10
  %29 = load i32, ptr %7, align 4, !tbaa !10
  %30 = add i32 %28, %29
  %31 = zext i32 %30 to i64
  %32 = call ptr @lj_mem_realloc(ptr noundef %27, ptr noundef null, i64 noundef 0, i64 noundef %31)
  store ptr %32, ptr %11, align 8, !tbaa !30
  call void @llvm.lifetime.start.p0(i64 8, ptr %12) #6
  %33 = load ptr, ptr %11, align 8, !tbaa !30
  %34 = ptrtoint ptr %33 to i64
  %35 = add i64 %34, 8
  %36 = add i64 %35, 16
  store i64 %36, ptr %12, align 8, !tbaa !32
  call void @llvm.lifetime.start.p0(i64 8, ptr %13) #6
  %37 = load i32, ptr %8, align 4, !tbaa !10
  %38 = shl i32 1, %37
  %39 = sub i32 %38, 1
  %40 = zext i32 %39 to i64
  store i64 %40, ptr %13, align 8, !tbaa !32
  call void @llvm.lifetime.start.p0(i64 8, ptr %14) #6
  %41 = load i64, ptr %12, align 8, !tbaa !32
  %42 = load i64, ptr %13, align 8, !tbaa !32
  %43 = add i64 %41, %42
  %44 = load i64, ptr %13, align 8, !tbaa !32
  %45 = xor i64 %44, -1
  %46 = and i64 %43, %45
  %47 = sub i64 %46, 16
  %48 = inttoptr i64 %47 to ptr
  store ptr %48, ptr %14, align 8, !tbaa !12
  %49 = load ptr, ptr %14, align 8, !tbaa !12
  %50 = load ptr, ptr %11, align 8, !tbaa !30
  %51 = ptrtoint ptr %49 to i64
  %52 = ptrtoint ptr %50 to i64
  %53 = sub i64 %51, %52
  %54 = trunc i64 %53 to i16
  %55 = load ptr, ptr %14, align 8, !tbaa !12
  %56 = getelementptr inbounds i8, ptr %55, i64 -8
  %57 = getelementptr inbounds nuw %struct.GCcdataVar, ptr %56, i32 0, i32 0
  store i16 %54, ptr %57, align 4, !tbaa !33
  %58 = load i32, ptr %10, align 4, !tbaa !10
  %59 = trunc i32 %58 to i16
  %60 = load ptr, ptr %14, align 8, !tbaa !12
  %61 = getelementptr inbounds i8, ptr %60, i64 -8
  %62 = getelementptr inbounds nuw %struct.GCcdataVar, ptr %61, i32 0, i32 1
  store i16 %59, ptr %62, align 2, !tbaa !35
  %63 = load i32, ptr %7, align 4, !tbaa !10
  %64 = load ptr, ptr %14, align 8, !tbaa !12
  %65 = getelementptr inbounds i8, ptr %64, i64 -8
  %66 = getelementptr inbounds nuw %struct.GCcdataVar, ptr %65, i32 0, i32 2
  store i32 %63, ptr %66, align 4, !tbaa !36
  %67 = load ptr, ptr %5, align 8, !tbaa !29
  %68 = getelementptr inbounds nuw %struct.lua_State, ptr %67, i32 0, i32 5
  %69 = getelementptr inbounds nuw %struct.MRef, ptr %68, i32 0, i32 0
  %70 = load i64, ptr %69, align 8, !tbaa !37
  %71 = inttoptr i64 %70 to ptr
  store ptr %71, ptr %9, align 8, !tbaa !41
  %72 = load ptr, ptr %9, align 8, !tbaa !41
  %73 = getelementptr inbounds nuw %struct.global_State, ptr %72, i32 0, i32 2
  %74 = getelementptr inbounds nuw %struct.GCState, ptr %73, i32 0, i32 7
  %75 = getelementptr inbounds nuw %struct.GCRef, ptr %74, i32 0, i32 0
  %76 = load i64, ptr %75, align 8, !tbaa !42
  %77 = load ptr, ptr %14, align 8, !tbaa !12
  %78 = getelementptr inbounds nuw %struct.GCcdata, ptr %77, i32 0, i32 0
  %79 = getelementptr inbounds nuw %struct.GCRef, ptr %78, i32 0, i32 0
  store i64 %76, ptr %79, align 8, !tbaa !52
  %80 = load ptr, ptr %14, align 8, !tbaa !12
  %81 = ptrtoint ptr %80 to i64
  %82 = load ptr, ptr %9, align 8, !tbaa !41
  %83 = getelementptr inbounds nuw %struct.global_State, ptr %82, i32 0, i32 2
  %84 = getelementptr inbounds nuw %struct.GCState, ptr %83, i32 0, i32 7
  %85 = getelementptr inbounds nuw %struct.GCRef, ptr %84, i32 0, i32 0
  store i64 %81, ptr %85, align 8, !tbaa !42
  %86 = load ptr, ptr %9, align 8, !tbaa !41
  %87 = getelementptr inbounds nuw %struct.global_State, ptr %86, i32 0, i32 2
  %88 = getelementptr inbounds nuw %struct.GCState, ptr %87, i32 0, i32 2
  %89 = load i8, ptr %88, align 8, !tbaa !53
  %90 = zext i8 %89 to i32
  %91 = and i32 %90, 3
  %92 = trunc i32 %91 to i8
  %93 = load ptr, ptr %14, align 8, !tbaa !12
  %94 = getelementptr inbounds nuw %struct.GChead, ptr %93, i32 0, i32 1
  store i8 %92, ptr %94, align 8, !tbaa !54
  %95 = load ptr, ptr %14, align 8, !tbaa !12
  %96 = getelementptr inbounds nuw %struct.GCcdata, ptr %95, i32 0, i32 1
  %97 = load i8, ptr %96, align 8, !tbaa !55
  %98 = zext i8 %97 to i32
  %99 = or i32 %98, 128
  %100 = trunc i32 %99 to i8
  store i8 %100, ptr %96, align 8, !tbaa !55
  %101 = load ptr, ptr %14, align 8, !tbaa !12
  %102 = getelementptr inbounds nuw %struct.GCcdata, ptr %101, i32 0, i32 2
  store i8 10, ptr %102, align 1, !tbaa !23
  %103 = load i32, ptr %6, align 4, !tbaa !10
  %104 = trunc i32 %103 to i16
  %105 = load ptr, ptr %14, align 8, !tbaa !12
  %106 = getelementptr inbounds nuw %struct.GCcdata, ptr %105, i32 0, i32 3
  store i16 %104, ptr %106, align 2, !tbaa !28
  %107 = load ptr, ptr %14, align 8, !tbaa !12
  call void @llvm.lifetime.end.p0(i64 8, ptr %14) #6
  call void @llvm.lifetime.end.p0(i64 8, ptr %13) #6
  call void @llvm.lifetime.end.p0(i64 8, ptr %12) #6
  call void @llvm.lifetime.end.p0(i64 8, ptr %11) #6
  call void @llvm.lifetime.end.p0(i64 4, ptr %10) #6
  call void @llvm.lifetime.end.p0(i64 8, ptr %9) #6
  ret ptr %107
}

; Function Attrs: alwaysinline nounwind uwtable
define internal ptr @lj_cdata_new(ptr noundef %0, i32 noundef %1, i32 noundef %2) #3 {
  %4 = alloca ptr, align 8
  %5 = alloca i32, align 4
  %6 = alloca i32, align 4
  %7 = alloca ptr, align 8
  store ptr %0, ptr %4, align 8, !tbaa !4
  store i32 %1, ptr %5, align 4, !tbaa !10
  store i32 %2, ptr %6, align 4, !tbaa !10
  call void @llvm.lifetime.start.p0(i64 8, ptr %7) #6
  %8 = load ptr, ptr %4, align 8, !tbaa !4
  %9 = getelementptr inbounds nuw %struct.CTState, ptr %8, i32 0, i32 3
  %10 = load ptr, ptr %9, align 8, !tbaa !14
  %11 = load i32, ptr %6, align 4, !tbaa !10
  %12 = zext i32 %11 to i64
  %13 = add i64 16, %12
  %14 = call ptr @lj_mem_newgco(ptr noundef %10, i64 noundef %13)
  store ptr %14, ptr %7, align 8, !tbaa !12
  %15 = load ptr, ptr %7, align 8, !tbaa !12
  %16 = getelementptr inbounds nuw %struct.GCcdata, ptr %15, i32 0, i32 2
  store i8 10, ptr %16, align 1, !tbaa !23
  %17 = load ptr, ptr %4, align 8, !tbaa !4
  %18 = load i32, ptr %5, align 4, !tbaa !10
  %19 = call i32 @ctype_check(ptr noundef %17, i32 noundef %18)
  %20 = trunc i32 %19 to i16
  %21 = load ptr, ptr %7, align 8, !tbaa !12
  %22 = getelementptr inbounds nuw %struct.GCcdata, ptr %21, i32 0, i32 3
  store i16 %20, ptr %22, align 2, !tbaa !28
  %23 = load ptr, ptr %7, align 8, !tbaa !12
  call void @llvm.lifetime.end.p0(i64 8, ptr %7) #6
  ret ptr %23
}

; Function Attrs: nounwind uwtable
define hidden ptr @lj_cdata_newx(ptr noundef %0, i32 noundef %1, i32 noundef %2, i32 noundef %3) #0 {
  %5 = alloca ptr, align 8
  %6 = alloca ptr, align 8
  %7 = alloca i32, align 4
  %8 = alloca i32, align 4
  %9 = alloca i32, align 4
  store ptr %0, ptr %6, align 8, !tbaa !4
  store i32 %1, ptr %7, align 4, !tbaa !10
  store i32 %2, ptr %8, align 4, !tbaa !10
  store i32 %3, ptr %9, align 4, !tbaa !10
  %10 = load i32, ptr %9, align 4, !tbaa !10
  %11 = and i32 %10, 1048576
  %12 = icmp ne i32 %11, 0
  br i1 %12, label %23, label %13

13:                                               ; preds = %4
  %14 = load i32, ptr %9, align 4, !tbaa !10
  %15 = lshr i32 %14, 16
  %16 = and i32 %15, 15
  %17 = icmp ule i32 %16, 3
  br i1 %17, label %18, label %23

18:                                               ; preds = %13
  %19 = load ptr, ptr %6, align 8, !tbaa !4
  %20 = load i32, ptr %7, align 4, !tbaa !10
  %21 = load i32, ptr %8, align 4, !tbaa !10
  %22 = call ptr @lj_cdata_new(ptr noundef %19, i32 noundef %20, i32 noundef %21)
  store ptr %22, ptr %5, align 8
  br label %33

23:                                               ; preds = %13, %4
  %24 = load ptr, ptr %6, align 8, !tbaa !4
  %25 = getelementptr inbounds nuw %struct.CTState, ptr %24, i32 0, i32 3
  %26 = load ptr, ptr %25, align 8, !tbaa !14
  %27 = load i32, ptr %7, align 4, !tbaa !10
  %28 = load i32, ptr %8, align 4, !tbaa !10
  %29 = load i32, ptr %9, align 4, !tbaa !10
  %30 = lshr i32 %29, 16
  %31 = and i32 %30, 15
  %32 = call ptr @lj_cdata_newv(ptr noundef %26, i32 noundef %27, i32 noundef %28, i32 noundef %31)
  store ptr %32, ptr %5, align 8
  br label %33

33:                                               ; preds = %23, %18
  %34 = load ptr, ptr %5, align 8
  ret ptr %34
}