; Function Attrs: nounwind uwtable
define hidden ptr @lj_cdata_newx(ptr noundef readonly captures(none) %0, i32 noundef %1, i32 noundef %2, i32 noundef %3) local_unnamed_addr #0 {
  %5 = and i32 %3, 1835008
  %or.cond = icmp eq i32 %5, 0
  %6 = getelementptr inbounds nuw i8, ptr %0, i64 16
  %7 = load ptr, ptr %6, align 8, !tbaa !4
  br i1 %or.cond, label %8, label %12

8:                                                ; preds = %4
  %9 = zext i32 %2 to i64
  %10 = add nuw nsw i64 %9, 16
  %11 = tail call ptr @lj_mem_newgco(ptr noundef %7, i64 noundef %10) #4
  br label %47

12:                                               ; preds = %4
  %13 = lshr i32 %3, 16
  %14 = and i32 %13, 15
  %15 = icmp samesign ugt i32 %14, 3
  %16 = shl nuw nsw i32 1, %14
  %17 = add nuw nsw i32 %16, 16
  %18 = select i1 %15, i32 %17, i32 24
  %19 = add i32 %18, %2
  %20 = zext i32 %19 to i64
  %21 = tail call ptr @lj_mem_realloc(ptr noundef %7, ptr noundef null, i64 noundef 0, i64 noundef %20) #4
  %22 = ptrtoint ptr %21 to i64
  %23 = add nsw i32 %16, -1
  %24 = zext nneg i32 %23 to i64
  %25 = add nuw nsw i64 %24, 24
  %26 = add i64 %25, %22
  %27 = xor i64 %24, -1
  %28 = and i64 %26, %27
  %29 = add i64 %28, -16
  %30 = inttoptr i64 %29 to ptr
  %31 = sub i64 %29, %22
  %32 = trunc i64 %31 to i16
  %33 = getelementptr inbounds i8, ptr %30, i64 -8
  store i16 %32, ptr %33, align 4, !tbaa !24
  %34 = trunc nuw i32 %18 to i16
  %35 = getelementptr inbounds i8, ptr %30, i64 -6
  store i16 %34, ptr %35, align 2, !tbaa !26
  %36 = getelementptr inbounds i8, ptr %30, i64 -4
  store i32 %2, ptr %36, align 4, !tbaa !27
  %37 = getelementptr inbounds nuw i8, ptr %7, i64 16
  %38 = load i64, ptr %37, align 8, !tbaa !28
  %39 = inttoptr i64 %38 to ptr
  %40 = getelementptr inbounds nuw i8, ptr %39, i64 40
  %41 = load i64, ptr %40, align 8, !tbaa !32
  store i64 %41, ptr %30, align 8, !tbaa !43
  store i64 %29, ptr %40, align 8, !tbaa !32
  %42 = getelementptr inbounds nuw i8, ptr %39, i64 32
  %43 = load i8, ptr %42, align 8, !tbaa !44
  %44 = and i8 %43, 3
  %45 = getelementptr inbounds nuw i8, ptr %30, i64 8
  %46 = or disjoint i8 %44, -128
  store i8 %46, ptr %45, align 8, !tbaa !45
  br label %47

47:                                               ; preds = %12, %8
  %.sink12 = phi ptr [ %30, %12 ], [ %11, %8 ]
  %48 = getelementptr inbounds nuw i8, ptr %.sink12, i64 9
  store i8 10, ptr %48, align 1, !tbaa !17
  %49 = trunc i32 %1 to i16
  %50 = getelementptr inbounds nuw i8, ptr %.sink12, i64 10
  store i16 %49, ptr %50, align 2, !tbaa !22
  ret ptr %.sink12
}